target datalayout = "e-m:e-p270:32:32-p271:32:32-p272:64:64-i64:64-i128:128-f80:128-n8:16:32:64-S128"
target triple = "x86_64-pc-linux-gnu"

%struct.GEQContext = type { ptr, [4 x [32 x ptr]], [7 x ptr], ptr, ptr, ptr, ptr, [8 x double], i32, i32, i32, i32, i32, i32, [4 x ptr], [4 x i32] }
%struct.AVChannelLayout = type { i32, i32, %union.anon.1, ptr }
%union.anon.1 = type { i64 }
%struct.AVRational = type { i32, i32 }
%struct.AVFrame = type { [8 x ptr], [8 x i32], ptr, i32, i32, i32, i32, i32, %struct.AVRational, i64, i64, %struct.AVRational, i32, ptr, i32, i32, [8 x ptr], ptr, i32, ptr, i32, i32, i32, i32, i32, i32, i32, i64, ptr, i32, ptr, ptr, i64, i64, i64, i64, ptr, %struct.AVChannelLayout, i64 }

; Function Attrs: alwaysinline nounwind willreturn memory(none) uwtable
define internal double @av_clipd_c(double noundef %0, double noundef %1, double noundef %2) #9 {
  %4 = alloca double, align 8
  %5 = alloca double, align 8
  %6 = alloca double, align 8
  store double %0, ptr %4, align 8, !tbaa !62
  store double %1, ptr %5, align 8, !tbaa !62
  store double %2, ptr %6, align 8, !tbaa !62
  %7 = load double, ptr %4, align 8, !tbaa !62
  %8 = load double, ptr %5, align 8, !tbaa !62
  %9 = fcmp nsz ogt double %7, %8
  br i1 %9, label %10, label %12

10:                                               ; preds = %3
  %11 = load double, ptr %4, align 8, !tbaa !62
  br label %14

12:                                               ; preds = %3
  %13 = load double, ptr %5, align 8, !tbaa !62
  br label %14

14:                                               ; preds = %12, %10
  %15 = phi nsz double [ %11, %10 ], [ %13, %12 ]
  %16 = load double, ptr %6, align 8, !tbaa !62
  %17 = fcmp nsz ogt double %15, %16
  br i1 %17, label %18, label %20

18:                                               ; preds = %14
  %19 = load double, ptr %6, align 8, !tbaa !62
  br label %30

20:                                               ; preds = %14
  %21 = load double, ptr %4, align 8, !tbaa !62
  %22 = load double, ptr %5, align 8, !tbaa !62
  %23 = fcmp nsz ogt double %21, %22
  br i1 %23, label %24, label %26

24:                                               ; preds = %20
  %25 = load double, ptr %4, align 8, !tbaa !62
  br label %28

26:                                               ; preds = %20
  %27 = load double, ptr %5, align 8, !tbaa !62
  br label %28

28:                                               ; preds = %26, %24
  %29 = phi nsz double [ %25, %24 ], [ %27, %26 ]
  br label %30

30:                                               ; preds = %28, %18
  %31 = phi nsz double [ %19, %18 ], [ %29, %28 ]
  ret double %31
}

; Function Attrs: inlinehint nounwind uwtable
define internal double @getpix_integrate(ptr noundef %0, double noundef %1, double noundef %2, i32 noundef %3) #3 {
  %5 = alloca double, align 8
  %6 = alloca ptr, align 8
  %7 = alloca double, align 8
  %8 = alloca double, align 8
  %9 = alloca i32, align 4
  %10 = alloca ptr, align 8
  %11 = alloca ptr, align 8
  %12 = alloca ptr, align 8
  %13 = alloca i32, align 4
  %14 = alloca i32, align 4
  %15 = alloca i32, align 4
  store ptr %0, ptr %6, align 8, !tbaa !34
  store double %1, ptr %7, align 8, !tbaa !62
  store double %2, ptr %8, align 8, !tbaa !62
  store i32 %3, ptr %9, align 4, !tbaa !24
  call void @llvm.lifetime.start.p0(i64 8, ptr %10) #11
  %16 = load ptr, ptr %6, align 8, !tbaa !34
  store ptr %16, ptr %10, align 8, !tbaa !22
  call void @llvm.lifetime.start.p0(i64 8, ptr %11) #11
  %17 = load ptr, ptr %10, align 8, !tbaa !22
  %18 = getelementptr inbounds nuw %struct.GEQContext, ptr %17, i32 0, i32 3
  %19 = load ptr, ptr %18, align 8, !tbaa !68
  store ptr %19, ptr %11, align 8, !tbaa !47
  call void @llvm.lifetime.start.p0(i64 8, ptr %12) #11
  %20 = load ptr, ptr %11, align 8, !tbaa !47
  %21 = getelementptr inbounds nuw %struct.AVFrame, ptr %20, i32 0, i32 0
  %22 = load i32, ptr %9, align 4, !tbaa !24
  %23 = sext i32 %22 to i64
  %24 = getelementptr inbounds [8 x ptr], ptr %21, i64 0, i64 %23
  %25 = load ptr, ptr %24, align 8, !tbaa !25
  store ptr %25, ptr %12, align 8, !tbaa !25
  call void @llvm.lifetime.start.p0(i64 4, ptr %13) #11
  %26 = load i32, ptr %9, align 4, !tbaa !24
  %27 = icmp eq i32 %26, 1
  br i1 %27, label %31, label %28

28:                                               ; preds = %4
  %29 = load i32, ptr %9, align 4, !tbaa !24
  %30 = icmp eq i32 %29, 2
  br i1 %30, label %31, label %62

31:                                               ; preds = %28, %4
  %32 = load ptr, ptr %10, align 8, !tbaa !22
  %33 = getelementptr inbounds nuw %struct.GEQContext, ptr %32, i32 0, i32 8
  %34 = load i32, ptr %33, align 8, !tbaa !72
  %35 = call i1 @llvm.is.constant.i32(i32 %34)
  br i1 %35, label %46, label %36

36:                                               ; preds = %31
  %37 = load ptr, ptr %11, align 8, !tbaa !47
  %38 = getelementptr inbounds nuw %struct.AVFrame, ptr %37, i32 0, i32 3
  %39 = load i32, ptr %38, align 8, !tbaa !115
  %40 = sub nsw i32 0, %39
  %41 = load ptr, ptr %10, align 8, !tbaa !22
  %42 = getelementptr inbounds nuw %struct.GEQContext, ptr %41, i32 0, i32 8
  %43 = load i32, ptr %42, align 8, !tbaa !72
  %44 = ashr i32 %40, %43
  %45 = sub nsw i32 0, %44
  br label %60

46:                                               ; preds = %31
  %47 = load ptr, ptr %11, align 8, !tbaa !47
  %48 = getelementptr inbounds nuw %struct.AVFrame, ptr %47, i32 0, i32 3
  %49 = load i32, ptr %48, align 8, !tbaa !115
  %50 = load ptr, ptr %10, align 8, !tbaa !22
  %51 = getelementptr inbounds nuw %struct.GEQContext, ptr %50, i32 0, i32 8
  %52 = load i32, ptr %51, align 8, !tbaa !72
  %53 = shl i32 1, %52
  %54 = add nsw i32 %49, %53
  %55 = sub nsw i32 %54, 1
  %56 = load ptr, ptr %10, align 8, !tbaa !22
  %57 = getelementptr inbounds nuw %struct.GEQContext, ptr %56, i32 0, i32 8
  %58 = load i32, ptr %57, align 8, !tbaa !72
  %59 = ashr i32 %55, %58
  br label %60

60:                                               ; preds = %46, %36
  %61 = phi i32 [ %45, %36 ], [ %59, %46 ]
  br label %66

62:                                               ; preds = %28
  %63 = load ptr, ptr %11, align 8, !tbaa !47
  %64 = getelementptr inbounds nuw %struct.AVFrame, ptr %63, i32 0, i32 3
  %65 = load i32, ptr %64, align 8, !tbaa !115
  br label %66

66:                                               ; preds = %62, %60
  %67 = phi i32 [ %61, %60 ], [ %65, %62 ]
  store i32 %67, ptr %13, align 4, !tbaa !24
  call void @llvm.lifetime.start.p0(i64 4, ptr %14) #11
  %68 = load i32, ptr %9, align 4, !tbaa !24
  %69 = icmp eq i32 %68, 1
  br i1 %69, label %73, label %70

70:                                               ; preds = %66
  %71 = load i32, ptr %9, align 4, !tbaa !24
  %72 = icmp eq i32 %71, 2
  br i1 %72, label %73, label %104

73:                                               ; preds = %70, %66
  %74 = load ptr, ptr %10, align 8, !tbaa !22
  %75 = getelementptr inbounds nuw %struct.GEQContext, ptr %74, i32 0, i32 9
  %76 = load i32, ptr %75, align 4, !tbaa !73
  %77 = call i1 @llvm.is.constant.i32(i32 %76)
  br i1 %77, label %88, label %78

78:                                               ; preds = %73
  %79 = load ptr, ptr %11, align 8, !tbaa !47
  %80 = getelementptr inbounds nuw %struct.AVFrame, ptr %79, i32 0, i32 4
  %81 = load i32, ptr %80, align 4, !tbaa !116
  %82 = sub nsw i32 0, %81
  %83 = load ptr, ptr %10, align 8, !tbaa !22
  %84 = getelementptr inbounds nuw %struct.GEQContext, ptr %83, i32 0, i32 9
  %85 = load i32, ptr %84, align 4, !tbaa !73
  %86 = ashr i32 %82, %85
  %87 = sub nsw i32 0, %86
  br label %102

88:                                               ; preds = %73
  %89 = load ptr, ptr %11, align 8, !tbaa !47
  %90 = getelementptr inbounds nuw %struct.AVFrame, ptr %89, i32 0, i32 4
  %91 = load i32, ptr %90, align 4, !tbaa !116
  %92 = load ptr, ptr %10, align 8, !tbaa !22
  %93 = getelementptr inbounds nuw %struct.GEQContext, ptr %92, i32 0, i32 9
  %94 = load i32, ptr %93, align 4, !tbaa !73
  %95 = shl i32 1, %94
  %96 = add nsw i32 %91, %95
  %97 = sub nsw i32 %96, 1
  %98 = load ptr, ptr %10, align 8, !tbaa !22
  %99 = getelementptr inbounds nuw %struct.GEQContext, ptr %98, i32 0, i32 9
  %100 = load i32, ptr %99, align 4, !tbaa !73
  %101 = ashr i32 %97, %100
  br label %102

102:                                              ; preds = %88, %78
  %103 = phi i32 [ %87, %78 ], [ %101, %88 ]
  br label %108

104:                                              ; preds = %70
  %105 = load ptr, ptr %11, align 8, !tbaa !47
  %106 = getelementptr inbounds nuw %struct.AVFrame, ptr %105, i32 0, i32 4
  %107 = load i32, ptr %106, align 4, !tbaa !116
  br label %108

108:                                              ; preds = %104, %102
  %109 = phi i32 [ %103, %102 ], [ %107, %104 ]
  store i32 %109, ptr %14, align 4, !tbaa !24
  %110 = load ptr, ptr %12, align 8, !tbaa !25
  %111 = icmp ne ptr %110, null
  br i1 %111, label %113, label %112

112:                                              ; preds = %108
  store double 0.000000e+00, ptr %5, align 8
  store i32 1, ptr %15, align 4
  br label %139

113:                                              ; preds = %108
  %114 = load ptr, ptr %10, align 8, !tbaa !22
  %115 = load double, ptr %7, align 8, !tbaa !62
  %116 = load i32, ptr %13, align 4, !tbaa !24
  %117 = sub nsw i32 0, %116
  %118 = sitofp i32 %117 to double
  %119 = load i32, ptr %13, align 4, !tbaa !24
  %120 = mul nsw i32 2, %119
  %121 = sitofp i32 %120 to double
  %122 = call nsz double @av_clipd_c(double noundef %115, double noundef %118, double noundef %121) #14
  %123 = call i64 @llvm.lrint.i64.f64(double %122)
  %124 = trunc i64 %123 to i32
  %125 = load double, ptr %8, align 8, !tbaa !62
  %126 = load i32, ptr %14, align 4, !tbaa !24
  %127 = sub nsw i32 0, %126
  %128 = sitofp i32 %127 to double
  %129 = load i32, ptr %14, align 4, !tbaa !24
  %130 = mul nsw i32 2, %129
  %131 = sitofp i32 %130 to double
  %132 = call nsz double @av_clipd_c(double noundef %125, double noundef %128, double noundef %131) #14
  %133 = call i64 @llvm.lrint.i64.f64(double %132)
  %134 = trunc i64 %133 to i32
  %135 = load i32, ptr %9, align 4, !tbaa !24
  %136 = load i32, ptr %13, align 4, !tbaa !24
  %137 = load i32, ptr %14, align 4, !tbaa !24
  %138 = call nsz double @getpix_integrate_internal(ptr noundef %114, i32 noundef %124, i32 noundef %134, i32 noundef %135, i32 noundef %136, i32 noundef %137)
  store double %138, ptr %5, align 8
  store i32 1, ptr %15, align 4
  br label %139

139:                                              ; preds = %113, %112
  call void @llvm.lifetime.end.p0(i64 4, ptr %14) #11
  call void @llvm.lifetime.end.p0(i64 4, ptr %13) #11
  call void @llvm.lifetime.end.p0(i64 8, ptr %12) #11
  call void @llvm.lifetime.end.p0(i64 8, ptr %11) #11
  call void @llvm.lifetime.end.p0(i64 8, ptr %10) #11
  %140 = load double, ptr %5, align 8
  ret double %140
}

; Function Attrs: nounwind uwtable
define internal double @crsub(ptr noundef %0, double noundef %1, double noundef %2) #1 {
  %4 = alloca ptr, align 8
  %5 = alloca double, align 8
  %6 = alloca double, align 8
  store ptr %0, ptr %4, align 8, !tbaa !34
  store double %1, ptr %5, align 8, !tbaa !62
  store double %2, ptr %6, align 8, !tbaa !62
  %7 = load ptr, ptr %4, align 8, !tbaa !34
  %8 = load double, ptr %5, align 8, !tbaa !62
  %9 = load double, ptr %6, align 8, !tbaa !62
  %10 = call nsz double @getpix_integrate(ptr noundef %7, double noundef %8, double noundef %9, i32 noundef 2)
  ret double %10
}